target datalayout = "e-m:e-p270:32:32-p271:32:32-p272:64:64-i64:64-i128:128-f80:128-n8:16:32:64-S128"
target triple = "x86_64-pc-linux-gnu"

%struct.AVCodecContext = type { ptr, i32, i32, ptr, i32, i32, ptr, ptr, ptr, i64, i32, i32, ptr, i32, %struct.AVRational, %struct.AVRational, %struct.AVRational, i32, i32, i32, i32, i32, %struct.AVRational, i32, i32, i32, i32, i32, i32, i32, i32, i32, i32, i32, ptr, ptr, i32, float, float, float, float, float, float, float, float, float, i32, i32, i32, i32, i32, i32, i32, i32, i32, i32, i32, i32, ptr, ptr, ptr, i32, i32, i32, i32, i32, i32, i32, i32, i32, i32, %struct.AVChannelLayout, i32, i32, i32, i32, i32, i32, i32, i32, ptr, i32, i32, i32, float, float, i32, i32, i32, i32, i32, ptr, i64, i64, float, float, i32, i32, ptr, ptr, i32, i32, i32, i32, i32, ptr, ptr, ptr, ptr, i32, i32, [8 x i64], i32, i32, i32, i32, i32, i32, i32, ptr, ptr, i32, i32, i32, i32, i32, i32, i32, i32, i32, i32, ptr, ptr, i32, i32, ptr, ptr, ptr, ptr, i32, i32, i64, i32, i32, i64, ptr, i64, ptr, i32, ptr, i32 }
%struct.AVRational = type { i32, i32 }
%struct.AVChannelLayout = type { i32, i32, %union.anon.1, ptr }
%union.anon.1 = type { i64 }
%struct.Jpeg2000EncoderContext = type { ptr, ptr, ptr, i32, i32, [4 x i8], [4 x i8], [2 x i32], i8, i32, i32, i32, i32, i32, ptr, ptr, ptr, i32, i64, %struct.Jpeg2000CodingStyle, %struct.Jpeg2000QuantStyle, ptr, [100 x i32], i8, i32, i32, i32, i32, i32, i32, ptr }
%struct.Jpeg2000CodingStyle = type { i32, i32, i8, i8, i8, i8, i8, i8, i8, i8, [34 x i8], [34 x i8], i8 }
%struct.Jpeg2000QuantStyle = type { [99 x i8], [99 x i16], i8, i8 }
%struct.Jpeg2000Tile = type { ptr, ptr }
%struct.Jpeg2000Component = type { ptr, %struct.DWTContext, ptr, ptr, [2 x [2 x i32]], [2 x [2 x i32]], i8 }
%struct.DWTContext = type { [32 x [2 x i32]], [32 x [2 x i8]], i8, i8, ptr, ptr }

; Function Attrs: nounwind uwtable
define internal void @cleanup(ptr noundef %0) #1 {
  %2 = alloca ptr, align 8
  %3 = alloca i32, align 4
  %4 = alloca i32, align 4
  %5 = alloca ptr, align 8
  %6 = alloca i32, align 4
  %7 = alloca ptr, align 8
  store ptr %0, ptr %2, align 8, !tbaa !29
  call void @llvm.lifetime.start.p0(i64 4, ptr %3) #13
  call void @llvm.lifetime.start.p0(i64 4, ptr %4) #13
  call void @llvm.lifetime.start.p0(i64 8, ptr %5) #13
  %8 = load ptr, ptr %2, align 8, !tbaa !29
  %9 = getelementptr inbounds nuw %struct.Jpeg2000EncoderContext, ptr %8, i32 0, i32 19
  store ptr %9, ptr %5, align 8, !tbaa !30
  %10 = load ptr, ptr %2, align 8, !tbaa !29
  %11 = getelementptr inbounds nuw %struct.Jpeg2000EncoderContext, ptr %10, i32 0, i32 21
  %12 = load ptr, ptr %11, align 8, !tbaa !93
  %13 = icmp ne ptr %12, null
  br i1 %13, label %15, label %14

14:                                               ; preds = %1
  store i32 1, ptr %6, align 4
  br label %82

15:                                               ; preds = %1
  store i32 0, ptr %3, align 4, !tbaa !43
  br label %16

16:                                               ; preds = %76, %15
  %17 = load i32, ptr %3, align 4, !tbaa !43
  %18 = load ptr, ptr %2, align 8, !tbaa !29
  %19 = getelementptr inbounds nuw %struct.Jpeg2000EncoderContext, ptr %18, i32 0, i32 12
  %20 = load i32, ptr %19, align 8, !tbaa !91
  %21 = load ptr, ptr %2, align 8, !tbaa !29
  %22 = getelementptr inbounds nuw %struct.Jpeg2000EncoderContext, ptr %21, i32 0, i32 13
  %23 = load i32, ptr %22, align 4, !tbaa !92
  %24 = mul nsw i32 %20, %23
  %25 = icmp slt i32 %17, %24
  br i1 %25, label %26, label %79

26:                                               ; preds = %16
  %27 = load ptr, ptr %2, align 8, !tbaa !29
  %28 = getelementptr inbounds nuw %struct.Jpeg2000EncoderContext, ptr %27, i32 0, i32 21
  %29 = load ptr, ptr %28, align 8, !tbaa !93
  %30 = load i32, ptr %3, align 4, !tbaa !43
  %31 = sext i32 %30 to i64
  %32 = getelementptr inbounds %struct.Jpeg2000Tile, ptr %29, i64 %31
  %33 = getelementptr inbounds nuw %struct.Jpeg2000Tile, ptr %32, i32 0, i32 0
  %34 = load ptr, ptr %33, align 8, !tbaa !103
  %35 = icmp ne ptr %34, null
  br i1 %35, label %36, label %68

36:                                               ; preds = %26
  store i32 0, ptr %4, align 4, !tbaa !43
  br label %37

37:                                               ; preds = %57, %36
  %38 = load i32, ptr %4, align 4, !tbaa !43
  %39 = load ptr, ptr %2, align 8, !tbaa !29
  %40 = getelementptr inbounds nuw %struct.Jpeg2000EncoderContext, ptr %39, i32 0, i32 9
  %41 = load i32, ptr %40, align 4, !tbaa !63
  %42 = icmp slt i32 %38, %41
  br i1 %42, label %43, label %60

43:                                               ; preds = %37
  call void @llvm.lifetime.start.p0(i64 8, ptr %7) #13
  %44 = load ptr, ptr %2, align 8, !tbaa !29
  %45 = getelementptr inbounds nuw %struct.Jpeg2000EncoderContext, ptr %44, i32 0, i32 21
  %46 = load ptr, ptr %45, align 8, !tbaa !93
  %47 = load i32, ptr %3, align 4, !tbaa !43
  %48 = sext i32 %47 to i64
  %49 = getelementptr inbounds %struct.Jpeg2000Tile, ptr %46, i64 %48
  %50 = getelementptr inbounds nuw %struct.Jpeg2000Tile, ptr %49, i32 0, i32 0
  %51 = load ptr, ptr %50, align 8, !tbaa !103
  %52 = load i32, ptr %4, align 4, !tbaa !43
  %53 = sext i32 %52 to i64
  %54 = getelementptr inbounds %struct.Jpeg2000Component, ptr %51, i64 %53
  store ptr %54, ptr %7, align 8, !tbaa !108
  %55 = load ptr, ptr %7, align 8, !tbaa !108
  %56 = load ptr, ptr %5, align 8, !tbaa !30
  call void @ff_jpeg2000_cleanup(ptr noundef %55, ptr noundef %56)
  call void @llvm.lifetime.end.p0(i64 8, ptr %7) #13
  br label %57

57:                                               ; preds = %43
  %58 = load i32, ptr %4, align 4, !tbaa !43
  %59 = add nsw i32 %58, 1
  store i32 %59, ptr %4, align 4, !tbaa !43
  br label %37, !llvm.loop !299

60:                                               ; preds = %37
  %61 = load ptr, ptr %2, align 8, !tbaa !29
  %62 = getelementptr inbounds nuw %struct.Jpeg2000EncoderContext, ptr %61, i32 0, i32 21
  %63 = load ptr, ptr %62, align 8, !tbaa !93
  %64 = load i32, ptr %3, align 4, !tbaa !43
  %65 = sext i32 %64 to i64
  %66 = getelementptr inbounds %struct.Jpeg2000Tile, ptr %63, i64 %65
  %67 = getelementptr inbounds nuw %struct.Jpeg2000Tile, ptr %66, i32 0, i32 0
  call void @av_freep(ptr noundef %67)
  br label %68

68:                                               ; preds = %60, %26
  %69 = load ptr, ptr %2, align 8, !tbaa !29
  %70 = getelementptr inbounds nuw %struct.Jpeg2000EncoderContext, ptr %69, i32 0, i32 21
  %71 = load ptr, ptr %70, align 8, !tbaa !93
  %72 = load i32, ptr %3, align 4, !tbaa !43
  %73 = sext i32 %72 to i64
  %74 = getelementptr inbounds %struct.Jpeg2000Tile, ptr %71, i64 %73
  %75 = getelementptr inbounds nuw %struct.Jpeg2000Tile, ptr %74, i32 0, i32 1
  call void @av_freep(ptr noundef %75)
  br label %76

76:                                               ; preds = %68
  %77 = load i32, ptr %3, align 4, !tbaa !43
  %78 = add nsw i32 %77, 1
  store i32 %78, ptr %3, align 4, !tbaa !43
  br label %16, !llvm.loop !300

79:                                               ; preds = %16
  %80 = load ptr, ptr %2, align 8, !tbaa !29
  %81 = getelementptr inbounds nuw %struct.Jpeg2000EncoderContext, ptr %80, i32 0, i32 21
  call void @av_freep(ptr noundef %81)
  store i32 0, ptr %6, align 4
  br label %82

82:                                               ; preds = %79, %14
  call void @llvm.lifetime.end.p0(i64 8, ptr %5) #13
  call void @llvm.lifetime.end.p0(i64 4, ptr %4) #13
  call void @llvm.lifetime.end.p0(i64 4, ptr %3) #13
  %83 = load i32, ptr %6, align 4
  switch i32 %83, label %85 [
    i32 0, label %84
    i32 1, label %84
  ]

84:                                               ; preds = %82, %82
  ret void

85:                                               ; preds = %82
  unreachable
}

; Function Attrs: nounwind uwtable
define internal i32 @j2kenc_destroy(ptr noundef %0) #1 {
  %2 = alloca ptr, align 8
  %3 = alloca ptr, align 8
  store ptr %0, ptr %2, align 8, !tbaa !4
  call void @llvm.lifetime.start.p0(i64 8, ptr %3) #13
  %4 = load ptr, ptr %2, align 8, !tbaa !4
  %5 = getelementptr inbounds nuw %struct.AVCodecContext, ptr %4, i32 0, i32 6
  %6 = load ptr, ptr %5, align 8, !tbaa !9
  store ptr %6, ptr %3, align 8, !tbaa !29
  %7 = load ptr, ptr %3, align 8, !tbaa !29
  call void @cleanup(ptr noundef %7)
  call void @llvm.lifetime.end.p0(i64 8, ptr %3) #13
  ret i32 0
}