; Function Attrs: nounwind uwtable
define internal noundef i32 @j2kenc_destroy(ptr noundef readonly captures(none) %0) #1 {
  %2 = getelementptr inbounds nuw i8, ptr %0, i64 32
  %3 = load ptr, ptr %2, align 8, !tbaa !4
  %4 = getelementptr inbounds nuw i8, ptr %3, i64 112
  %5 = getelementptr inbounds nuw i8, ptr %3, i64 504
  %6 = load ptr, ptr %5, align 8, !tbaa !74
  %.not.i = icmp eq ptr %6, null
  br i1 %.not.i, label %cleanup.exit, label %.preheader22.i

.preheader22.i:                                   ; preds = %1
  %7 = getelementptr inbounds nuw i8, ptr %3, i64 64
  %8 = getelementptr inbounds nuw i8, ptr %3, i64 68
  %9 = load i32, ptr %7, align 8, !tbaa !72
  %10 = load i32, ptr %8, align 4, !tbaa !73
  %11 = mul nsw i32 %10, %9
  %12 = icmp sgt i32 %11, 0
  br i1 %12, label %.lr.ph25.i, label %._crit_edge26.i

.lr.ph25.i:                                       ; preds = %.preheader22.i
  %13 = getelementptr inbounds nuw i8, ptr %3, i64 52
  br label %14

14:                                               ; preds = %29, %.lr.ph25.i
  %indvars.iv28.i = phi i64 [ 0, %.lr.ph25.i ], [ %indvars.iv.next29.i, %29 ]
  %15 = load ptr, ptr %5, align 8, !tbaa !74
  %16 = getelementptr inbounds nuw %struct.Jpeg2000Tile, ptr %15, i64 %indvars.iv28.i
  %17 = load ptr, ptr %16, align 8, !tbaa !75
  %.not21.i = icmp eq ptr %17, null
  br i1 %.not21.i, label %29, label %.preheader.i

.preheader.i:                                     ; preds = %14
  %18 = load i32, ptr %13, align 4, !tbaa !59
  %19 = icmp sgt i32 %18, 0
  br i1 %19, label %.lr.ph.i, label %._crit_edge.i

.lr.ph.i:                                         ; preds = %.preheader.i, %.lr.ph.i
  %indvars.iv.i = phi i64 [ %indvars.iv.next.i, %.lr.ph.i ], [ 0, %.preheader.i ]
  %20 = load ptr, ptr %5, align 8, !tbaa !74
  %21 = getelementptr inbounds nuw %struct.Jpeg2000Tile, ptr %20, i64 %indvars.iv28.i
  %22 = load ptr, ptr %21, align 8, !tbaa !75
  %23 = getelementptr inbounds nuw %struct.Jpeg2000Component, ptr %22, i64 %indvars.iv.i
  tail call void @ff_jpeg2000_cleanup(ptr noundef %23, ptr noundef nonnull %4) #12
  %indvars.iv.next.i = add nuw nsw i64 %indvars.iv.i, 1
  %24 = load i32, ptr %13, align 4, !tbaa !59
  %25 = sext i32 %24 to i64
  %26 = icmp slt i64 %indvars.iv.next.i, %25
  br i1 %26, label %.lr.ph.i, label %._crit_edge.loopexit.i, !llvm.loop !214

._crit_edge.loopexit.i:                           ; preds = %.lr.ph.i
  %.pre.i = load ptr, ptr %5, align 8, !tbaa !74
  br label %._crit_edge.i

._crit_edge.i:                                    ; preds = %._crit_edge.loopexit.i, %.preheader.i
  %27 = phi ptr [ %.pre.i, %._crit_edge.loopexit.i ], [ %15, %.preheader.i ]
  %28 = getelementptr inbounds nuw %struct.Jpeg2000Tile, ptr %27, i64 %indvars.iv28.i
  tail call void @av_freep(ptr noundef %28) #12
  %.pre31.i = load ptr, ptr %5, align 8, !tbaa !74
  br label %29

29:                                               ; preds = %._crit_edge.i, %14
  %30 = phi ptr [ %.pre31.i, %._crit_edge.i ], [ %15, %14 ]
  %31 = getelementptr inbounds nuw %struct.Jpeg2000Tile, ptr %30, i64 %indvars.iv28.i, i32 1
  tail call void @av_freep(ptr noundef nonnull %31) #12
  %indvars.iv.next29.i = add nuw nsw i64 %indvars.iv28.i, 1
  %32 = load i32, ptr %7, align 8, !tbaa !72
  %33 = load i32, ptr %8, align 4, !tbaa !73
  %34 = mul nsw i32 %33, %32
  %35 = sext i32 %34 to i64
  %36 = icmp slt i64 %indvars.iv.next29.i, %35
  br i1 %36, label %14, label %._crit_edge26.i, !llvm.loop !215

._crit_edge26.i:                                  ; preds = %29, %.preheader22.i
  tail call void @av_freep(ptr noundef nonnull %5) #12
  br label %cleanup.exit

cleanup.exit:                                     ; preds = %1, %._crit_edge26.i
  ret i32 0
}